target datalayout = "e-m:e-p270:32:32-p271:32:32-p272:64:64-i64:64-i128:128-f80:128-n8:16:32:64-S128"
target triple = "x86_64-unknown-linux-gnu"

%class.btCollisionWorld = type <{ ptr, %class.btAlignedObjectArray, ptr, %struct.btDispatcherInfo, ptr, ptr, i8, [7 x i8] }>
%class.btAlignedObjectArray = type <{ %class.btAlignedAllocator, [3 x i8], i32, i32, [4 x i8], ptr, i8, [7 x i8] }>
%class.btAlignedAllocator = type { i8 }
%struct.btDispatcherInfo = type <{ float, i32, i32, float, i8, [7 x i8], ptr, i8, i8, i8, i8, float, i8, [3 x i8], float, i8, [7 x i8] }>
%class.btCollisionObject = type <{ ptr, %class.btTransform, %class.btTransform, %class.btVector3, %class.btVector3, %class.btVector3, i32, float, ptr, ptr, ptr, ptr, i32, i32, i32, i32, i32, float, float, float, float, float, float, float, i32, [4 x i8], ptr, i32, i32, i32, float, float, float, i32, [4 x i8], %class.btAlignedObjectArray.0, i32, %class.btVector3, [4 x i8] }>
%class.btTransform = type { %class.btMatrix3x3, %class.btVector3 }
%class.btMatrix3x3 = type { [3 x %class.btVector3] }
%class.btAlignedObjectArray.0 = type <{ %class.btAlignedAllocator.1, [3 x i8], i32, i32, [4 x i8], ptr, i8, [7 x i8] }>
%class.btAlignedAllocator.1 = type { i8 }
%class.btVector3 = type { [4 x float] }
%struct.btCollisionObjectWrapper = type { ptr, ptr, ptr, ptr, ptr, i32, i32 }
%struct.btBridgedManifoldResult = type { %class.btManifoldResult.base, ptr }
%class.btManifoldResult.base = type <{ %"struct.btDiscreteCollisionDetectorInterface::Result", ptr, ptr, ptr, i32, i32, i32, i32, float }>
%"struct.btDiscreteCollisionDetectorInterface::Result" = type { ptr }
%"struct.btCollisionWorld::ContactResultCallback" = type <{ ptr, i32, i32, float, [4 x i8] }>
%class.btManifoldResult = type <{ %"struct.btDiscreteCollisionDetectorInterface::Result", ptr, ptr, ptr, i32, i32, i32, i32, float, [4 x i8] }>

; Function Attrs: mustprogress nounwind uwtable
define linkonce_odr dso_local void @_ZN36btDiscreteCollisionDetectorInterface6ResultD2Ev(ptr noundef nonnull align 8 dereferenceable(8) %this) unnamed_addr #1 comdat align 2 {
entry:
  %this.addr = alloca ptr, align 8
  store ptr %this, ptr %this.addr, align 8
  ret void
}

; Function Attrs: mustprogress nounwind uwtable
define linkonce_odr dso_local void @_ZN16btManifoldResultD2Ev(ptr noundef nonnull align 8 dereferenceable(52) %this) unnamed_addr #1 comdat align 2 {
entry:
  %this.addr = alloca ptr, align 8
  store ptr %this, ptr %this.addr, align 8
  %this1 = load ptr, ptr %this.addr, align 8
  call void @_ZN36btDiscreteCollisionDetectorInterface6ResultD2Ev(ptr noundef nonnull align 8 dereferenceable(8) %this1) #12
  ret void
}

; Function Attrs: mustprogress nounwind uwtable
define linkonce_odr dso_local void @_ZN23btBridgedManifoldResultD2Ev(ptr noundef nonnull align 8 dereferenceable(64) %this) unnamed_addr #1 comdat align 2 {
entry:
  %this.addr = alloca ptr, align 8
  store ptr %this, ptr %this.addr, align 8
  %this1 = load ptr, ptr %this.addr, align 8
  call void @_ZN16btManifoldResultD2Ev(ptr noundef nonnull align 8 dereferenceable(52) %this1) #12
  ret void
}

; Function Attrs: mustprogress nounwind uwtable
define linkonce_odr dso_local noundef nonnull align 8 dereferenceable(49) ptr @_ZN16btCollisionWorld15getDispatchInfoEv(ptr noundef nonnull align 8 dereferenceable(121) %this) #1 comdat align 2 {
entry:
  %this.addr = alloca ptr, align 8
  store ptr %this, ptr %this.addr, align 8
  %this1 = load ptr, ptr %this.addr, align 8
  %m_dispatchInfo = getelementptr inbounds %class.btCollisionWorld, ptr %this1, i32 0, i32 3
  ret ptr %m_dispatchInfo
}

; Function Attrs: mustprogress uwtable
define linkonce_odr dso_local void @_ZN23btBridgedManifoldResultC2EPK24btCollisionObjectWrapperS2_RN16btCollisionWorld21ContactResultCallbackE(ptr noundef nonnull align 8 dereferenceable(64) %this, ptr noundef %obj0Wrap, ptr noundef %obj1Wrap, ptr noundef nonnull align 8 dereferenceable(20) %resultCallback) unnamed_addr #2 comdat align 2 {
entry:
  %this.addr = alloca ptr, align 8
  %obj0Wrap.addr = alloca ptr, align 8
  %obj1Wrap.addr = alloca ptr, align 8
  %resultCallback.addr = alloca ptr, align 8
  store ptr %this, ptr %this.addr, align 8
  store ptr %obj0Wrap, ptr %obj0Wrap.addr, align 8
  store ptr %obj1Wrap, ptr %obj1Wrap.addr, align 8
  store ptr %resultCallback, ptr %resultCallback.addr, align 8
  %this1 = load ptr, ptr %this.addr, align 8
  %0 = load ptr, ptr %obj0Wrap.addr, align 8
  %1 = load ptr, ptr %obj1Wrap.addr, align 8
  call void @_ZN16btManifoldResultC2EPK24btCollisionObjectWrapperS2_(ptr noundef nonnull align 8 dereferenceable(52) %this1, ptr noundef %0, ptr noundef %1)
  store ptr getelementptr inbounds ({ [7 x ptr] }, ptr @_ZTV23btBridgedManifoldResult, i32 0, i32 0, i32 2), ptr %this1, align 8
  %m_resultCallback = getelementptr inbounds %struct.btBridgedManifoldResult, ptr %this1, i32 0, i32 1
  %2 = load ptr, ptr %resultCallback.addr, align 8
  store ptr %2, ptr %m_resultCallback, align 8
  ret void
}

; Function Attrs: mustprogress nounwind uwtable
define linkonce_odr dso_local noundef ptr @_ZN16btCollisionWorld13getDispatcherEv(ptr noundef nonnull align 8 dereferenceable(121) %this) #1 comdat align 2 {
entry:
  %this.addr = alloca ptr, align 8
  store ptr %this, ptr %this.addr, align 8
  %this1 = load ptr, ptr %this.addr, align 8
  %m_dispatcher1 = getelementptr inbounds %class.btCollisionWorld, ptr %this1, i32 0, i32 2
  %0 = load ptr, ptr %m_dispatcher1, align 8
  ret ptr %0
}

; Function Attrs: mustprogress nounwind uwtable
define linkonce_odr dso_local void @_ZN24btCollisionObjectWrapperC2EPKS_PK16btCollisionShapePK17btCollisionObjectRK11btTransformii(ptr noundef nonnull align 8 dereferenceable(48) %this, ptr noundef %parent, ptr noundef %shape, ptr noundef %collisionObject, ptr noundef nonnull align 4 dereferenceable(64) %worldTransform, i32 noundef %partId, i32 noundef %index) unnamed_addr #1 comdat align 2 {
entry:
  %this.addr = alloca ptr, align 8
  %parent.addr = alloca ptr, align 8
  %shape.addr = alloca ptr, align 8
  %collisionObject.addr = alloca ptr, align 8
  %worldTransform.addr = alloca ptr, align 8
  %partId.addr = alloca i32, align 4
  %index.addr = alloca i32, align 4
  store ptr %this, ptr %this.addr, align 8
  store ptr %parent, ptr %parent.addr, align 8
  store ptr %shape, ptr %shape.addr, align 8
  store ptr %collisionObject, ptr %collisionObject.addr, align 8
  store ptr %worldTransform, ptr %worldTransform.addr, align 8
  store i32 %partId, ptr %partId.addr, align 4
  store i32 %index, ptr %index.addr, align 4
  %this1 = load ptr, ptr %this.addr, align 8
  %m_parent = getelementptr inbounds %struct.btCollisionObjectWrapper, ptr %this1, i32 0, i32 0
  %0 = load ptr, ptr %parent.addr, align 8
  store ptr %0, ptr %m_parent, align 8
  %m_shape = getelementptr inbounds %struct.btCollisionObjectWrapper, ptr %this1, i32 0, i32 1
  %1 = load ptr, ptr %shape.addr, align 8
  store ptr %1, ptr %m_shape, align 8
  %m_collisionObject = getelementptr inbounds %struct.btCollisionObjectWrapper, ptr %this1, i32 0, i32 2
  %2 = load ptr, ptr %collisionObject.addr, align 8
  store ptr %2, ptr %m_collisionObject, align 8
  %m_worldTransform = getelementptr inbounds %struct.btCollisionObjectWrapper, ptr %this1, i32 0, i32 3
  %3 = load ptr, ptr %worldTransform.addr, align 8
  store ptr %3, ptr %m_worldTransform, align 8
  %m_preTransform = getelementptr inbounds %struct.btCollisionObjectWrapper, ptr %this1, i32 0, i32 4
  store ptr null, ptr %m_preTransform, align 8
  %m_partId = getelementptr inbounds %struct.btCollisionObjectWrapper, ptr %this1, i32 0, i32 5
  %4 = load i32, ptr %partId.addr, align 4
  store i32 %4, ptr %m_partId, align 8
  %m_index = getelementptr inbounds %struct.btCollisionObjectWrapper, ptr %this1, i32 0, i32 6
  %5 = load i32, ptr %index.addr, align 4
  store i32 %5, ptr %m_index, align 4
  ret void
}

; Function Attrs: mustprogress nounwind uwtable
define linkonce_odr dso_local noundef nonnull align 4 dereferenceable(64) ptr @_ZN17btCollisionObject17getWorldTransformEv(ptr noundef nonnull align 8 dereferenceable(372) %this) #1 comdat align 2 {
entry:
  %this.addr = alloca ptr, align 8
  store ptr %this, ptr %this.addr, align 8
  %this1 = load ptr, ptr %this.addr, align 8
  %m_worldTransform = getelementptr inbounds %class.btCollisionObject, ptr %this1, i32 0, i32 1
  ret ptr %m_worldTransform
}

; Function Attrs: mustprogress nounwind uwtable
define linkonce_odr dso_local noundef ptr @_ZN17btCollisionObject17getCollisionShapeEv(ptr noundef nonnull align 8 dereferenceable(372) %this) #1 comdat align 2 {
entry:
  %this.addr = alloca ptr, align 8
  store ptr %this, ptr %this.addr, align 8
  %this1 = load ptr, ptr %this.addr, align 8
  %m_collisionShape = getelementptr inbounds %class.btCollisionObject, ptr %this1, i32 0, i32 9
  %0 = load ptr, ptr %m_collisionShape, align 8
  ret ptr %0
}

; Function Attrs: mustprogress uwtable
define dso_local void @_ZN16btCollisionWorld15contactPairTestEP17btCollisionObjectS1_RNS_21ContactResultCallbackE(ptr noundef nonnull align 8 dereferenceable(121) %this, ptr noundef %colObjA, ptr noundef %colObjB, ptr noundef nonnull align 8 dereferenceable(20) %resultCallback) #2 align 2 personality ptr @__gxx_personality_v0 {
entry:
  %this.addr = alloca ptr, align 8
  %colObjA.addr = alloca ptr, align 8
  %colObjB.addr = alloca ptr, align 8
  %resultCallback.addr = alloca ptr, align 8
  %obA = alloca %struct.btCollisionObjectWrapper, align 8
  %obB = alloca %struct.btCollisionObjectWrapper, align 8
  %algorithm = alloca ptr, align 8
  %contactPointResult = alloca %struct.btBridgedManifoldResult, align 8
  %exn.slot = alloca ptr, align 8
  %ehselector.slot = alloca i32, align 4
  store ptr %this, ptr %this.addr, align 8
  store ptr %colObjA, ptr %colObjA.addr, align 8
  store ptr %colObjB, ptr %colObjB.addr, align 8
  store ptr %resultCallback, ptr %resultCallback.addr, align 8
  %this1 = load ptr, ptr %this.addr, align 8
  %0 = load ptr, ptr %colObjA.addr, align 8
  %call = call noundef ptr @_ZN17btCollisionObject17getCollisionShapeEv(ptr noundef nonnull align 8 dereferenceable(372) %0)
  %1 = load ptr, ptr %colObjA.addr, align 8
  %2 = load ptr, ptr %colObjA.addr, align 8
  %call2 = call noundef nonnull align 4 dereferenceable(64) ptr @_ZN17btCollisionObject17getWorldTransformEv(ptr noundef nonnull align 8 dereferenceable(372) %2)
  call void @_ZN24btCollisionObjectWrapperC2EPKS_PK16btCollisionShapePK17btCollisionObjectRK11btTransformii(ptr noundef nonnull align 8 dereferenceable(48) %obA, ptr noundef null, ptr noundef %call, ptr noundef %1, ptr noundef nonnull align 4 dereferenceable(64) %call2, i32 noundef -1, i32 noundef -1)
  %3 = load ptr, ptr %colObjB.addr, align 8
  %call3 = call noundef ptr @_ZN17btCollisionObject17getCollisionShapeEv(ptr noundef nonnull align 8 dereferenceable(372) %3)
  %4 = load ptr, ptr %colObjB.addr, align 8
  %5 = load ptr, ptr %colObjB.addr, align 8
  %call4 = call noundef nonnull align 4 dereferenceable(64) ptr @_ZN17btCollisionObject17getWorldTransformEv(ptr noundef nonnull align 8 dereferenceable(372) %5)
  call void @_ZN24btCollisionObjectWrapperC2EPKS_PK16btCollisionShapePK17btCollisionObjectRK11btTransformii(ptr noundef nonnull align 8 dereferenceable(48) %obB, ptr noundef null, ptr noundef %call3, ptr noundef %4, ptr noundef nonnull align 4 dereferenceable(64) %call4, i32 noundef -1, i32 noundef -1)
  %call5 = call noundef ptr @_ZN16btCollisionWorld13getDispatcherEv(ptr noundef nonnull align 8 dereferenceable(121) %this1)
  %vtable = load ptr, ptr %call5, align 8
  %vfn = getelementptr inbounds ptr, ptr %vtable, i64 2
  %6 = load ptr, ptr %vfn, align 8
  %call6 = call noundef ptr %6(ptr noundef nonnull align 8 dereferenceable(8) %call5, ptr noundef %obA, ptr noundef %obB, ptr noundef null, i32 noundef 2)
  store ptr %call6, ptr %algorithm, align 8
  %7 = load ptr, ptr %algorithm, align 8
  %tobool = icmp ne ptr %7, null
  br i1 %tobool, label %if.then, label %if.end

if.then:                                          ; preds = %entry
  %8 = load ptr, ptr %resultCallback.addr, align 8
  call void @_ZN23btBridgedManifoldResultC2EPK24btCollisionObjectWrapperS2_RN16btCollisionWorld21ContactResultCallbackE(ptr noundef nonnull align 8 dereferenceable(64) %contactPointResult, ptr noundef %obA, ptr noundef %obB, ptr noundef nonnull align 8 dereferenceable(20) %8)
  %9 = load ptr, ptr %resultCallback.addr, align 8
  %m_closestDistanceThreshold = getelementptr inbounds %"struct.btCollisionWorld::ContactResultCallback", ptr %9, i32 0, i32 3
  %10 = load float, ptr %m_closestDistanceThreshold, align 8
  %m_closestPointDistanceThreshold = getelementptr inbounds %class.btManifoldResult, ptr %contactPointResult, i32 0, i32 8
  store float %10, ptr %m_closestPointDistanceThreshold, align 8
  %11 = load ptr, ptr %algorithm, align 8
  %call7 = invoke noundef nonnull align 8 dereferenceable(49) ptr @_ZN16btCollisionWorld15getDispatchInfoEv(ptr noundef nonnull align 8 dereferenceable(121) %this1)
          to label %invoke.cont unwind label %lpad

invoke.cont:                                      ; preds = %if.then
  %vtable8 = load ptr, ptr %11, align 8
  %vfn9 = getelementptr inbounds ptr, ptr %vtable8, i64 2
  %12 = load ptr, ptr %vfn9, align 8
  invoke void %12(ptr noundef nonnull align 8 dereferenceable(16) %11, ptr noundef %obA, ptr noundef %obB, ptr noundef nonnull align 8 dereferenceable(49) %call7, ptr noundef %contactPointResult)
          to label %invoke.cont10 unwind label %lpad

invoke.cont10:                                    ; preds = %invoke.cont
  %13 = load ptr, ptr %algorithm, align 8
  %vtable11 = load ptr, ptr %13, align 8
  %vfn12 = getelementptr inbounds ptr, ptr %vtable11, i64 0
  %14 = load ptr, ptr %vfn12, align 8
  call void %14(ptr noundef nonnull align 8 dereferenceable(16) %13) #12
  %call14 = invoke noundef ptr @_ZN16btCollisionWorld13getDispatcherEv(ptr noundef nonnull align 8 dereferenceable(121) %this1)
          to label %invoke.cont13 unwind label %lpad

invoke.cont13:                                    ; preds = %invoke.cont10
  %15 = load ptr, ptr %algorithm, align 8
  %vtable15 = load ptr, ptr %call14, align 8
  %vfn16 = getelementptr inbounds ptr, ptr %vtable15, i64 15
  %16 = load ptr, ptr %vfn16, align 8
  invoke void %16(ptr noundef nonnull align 8 dereferenceable(8) %call14, ptr noundef %15)
          to label %invoke.cont17 unwind label %lpad

invoke.cont17:                                    ; preds = %invoke.cont13
  call void @_ZN23btBridgedManifoldResultD2Ev(ptr noundef nonnull align 8 dereferenceable(64) %contactPointResult) #12
  br label %if.end

lpad:                                             ; preds = %invoke.cont13, %invoke.cont10, %invoke.cont, %if.then
  %17 = landingpad { ptr, i32 }
          cleanup
  %18 = extractvalue { ptr, i32 } %17, 0
  store ptr %18, ptr %exn.slot, align 8
  %19 = extractvalue { ptr, i32 } %17, 1
  store i32 %19, ptr %ehselector.slot, align 4
  call void @_ZN23btBridgedManifoldResultD2Ev(ptr noundef nonnull align 8 dereferenceable(64) %contactPointResult) #12
  br label %eh.resume

if.end:                                           ; preds = %invoke.cont17, %entry
  ret void

eh.resume:                                        ; preds = %lpad
  %exn = load ptr, ptr %exn.slot, align 8
  %sel = load i32, ptr %ehselector.slot, align 4
  %lpad.val = insertvalue { ptr, i32 } poison, ptr %exn, 0
  %lpad.val18 = insertvalue { ptr, i32 } %lpad.val, i32 %sel, 1
  resume { ptr, i32 } %lpad.val18
}