; Function Attrs: mustprogress uwtable
define dso_local void @_ZN16btCollisionWorld15contactPairTestEP17btCollisionObjectS1_RNS_21ContactResultCallbackE(ptr noundef nonnull align 8 dereferenceable(121) %this, ptr noundef %colObjA, ptr noundef %colObjB, ptr noundef nonnull align 8 dereferenceable(20) %resultCallback) local_unnamed_addr #4 align 2 personality ptr @__gxx_personality_v0 {
entry:
  %obA = alloca %struct.btCollisionObjectWrapper, align 8
  %obB = alloca %struct.btCollisionObjectWrapper, align 8
  %contactPointResult = alloca %struct.btBridgedManifoldResult, align 8
  %m_collisionShape.i = getelementptr inbounds i8, ptr %colObjA, i64 200
  %0 = load ptr, ptr %m_collisionShape.i, align 8
  %m_worldTransform.i = getelementptr inbounds i8, ptr %colObjA, i64 8
  store ptr null, ptr %obA, align 8
  %m_shape.i = getelementptr inbounds i8, ptr %obA, i64 8
  store ptr %0, ptr %m_shape.i, align 8
  %m_collisionObject.i = getelementptr inbounds i8, ptr %obA, i64 16
  store ptr %colObjA, ptr %m_collisionObject.i, align 8
  %m_worldTransform.i9 = getelementptr inbounds i8, ptr %obA, i64 24
  store ptr %m_worldTransform.i, ptr %m_worldTransform.i9, align 8
  %m_preTransform.i = getelementptr inbounds i8, ptr %obA, i64 32
  store ptr null, ptr %m_preTransform.i, align 8
  %m_partId.i = getelementptr inbounds i8, ptr %obA, i64 40
  store i32 -1, ptr %m_partId.i, align 8
  %m_index.i = getelementptr inbounds i8, ptr %obA, i64 44
  store i32 -1, ptr %m_index.i, align 4
  %m_collisionShape.i10 = getelementptr inbounds i8, ptr %colObjB, i64 200
  %1 = load ptr, ptr %m_collisionShape.i10, align 8
  %m_worldTransform.i11 = getelementptr inbounds i8, ptr %colObjB, i64 8
  store ptr null, ptr %obB, align 8
  %m_shape.i12 = getelementptr inbounds i8, ptr %obB, i64 8
  store ptr %1, ptr %m_shape.i12, align 8
  %m_collisionObject.i13 = getelementptr inbounds i8, ptr %obB, i64 16
  store ptr %colObjB, ptr %m_collisionObject.i13, align 8
  %m_worldTransform.i14 = getelementptr inbounds i8, ptr %obB, i64 24
  store ptr %m_worldTransform.i11, ptr %m_worldTransform.i14, align 8
  %m_preTransform.i15 = getelementptr inbounds i8, ptr %obB, i64 32
  store ptr null, ptr %m_preTransform.i15, align 8
  %m_partId.i16 = getelementptr inbounds i8, ptr %obB, i64 40
  store i32 -1, ptr %m_partId.i16, align 8
  %m_index.i17 = getelementptr inbounds i8, ptr %obB, i64 44
  store i32 -1, ptr %m_index.i17, align 4
  %m_dispatcher1.i = getelementptr inbounds i8, ptr %this, i64 40
  %2 = load ptr, ptr %m_dispatcher1.i, align 8
  %vtable = load ptr, ptr %2, align 8
  %vfn = getelementptr inbounds i8, ptr %vtable, i64 16
  %3 = load ptr, ptr %vfn, align 8
  %call6 = call noundef ptr %3(ptr noundef nonnull align 8 dereferenceable(8) %2, ptr noundef nonnull %obA, ptr noundef nonnull %obB, ptr noundef null, i32 noundef 2)
  %tobool.not = icmp eq ptr %call6, null
  br i1 %tobool.not, label %if.end, label %if.then

if.then:                                          ; preds = %entry
  call void @_ZN16btManifoldResultC2EPK24btCollisionObjectWrapperS2_(ptr noundef nonnull align 8 dereferenceable(52) %contactPointResult, ptr noundef nonnull %obA, ptr noundef nonnull %obB)
  store ptr getelementptr inbounds ({ [7 x ptr] }, ptr @_ZTV23btBridgedManifoldResult, i64 0, i32 0, i64 2), ptr %contactPointResult, align 8
  %m_resultCallback.i = getelementptr inbounds i8, ptr %contactPointResult, i64 56
  store ptr %resultCallback, ptr %m_resultCallback.i, align 8
  %m_closestDistanceThreshold = getelementptr inbounds i8, ptr %resultCallback, i64 16
  %4 = load float, ptr %m_closestDistanceThreshold, align 8
  %m_closestPointDistanceThreshold = getelementptr inbounds i8, ptr %contactPointResult, i64 48
  store float %4, ptr %m_closestPointDistanceThreshold, align 8
  %m_dispatchInfo.i = getelementptr inbounds i8, ptr %this, i64 48
  %vtable8 = load ptr, ptr %call6, align 8
  %vfn9 = getelementptr inbounds i8, ptr %vtable8, i64 16
  %5 = load ptr, ptr %vfn9, align 8
  call void %5(ptr noundef nonnull align 8 dereferenceable(16) %call6, ptr noundef nonnull %obA, ptr noundef nonnull %obB, ptr noundef nonnull align 8 dereferenceable(49) %m_dispatchInfo.i, ptr noundef nonnull %contactPointResult)
  %vtable11 = load ptr, ptr %call6, align 8
  %6 = load ptr, ptr %vtable11, align 8
  call void %6(ptr noundef nonnull align 8 dereferenceable(16) %call6) #19
  %7 = load ptr, ptr %m_dispatcher1.i, align 8
  %vtable15 = load ptr, ptr %7, align 8
  %vfn16 = getelementptr inbounds i8, ptr %vtable15, i64 120
  %8 = load ptr, ptr %vfn16, align 8
  call void %8(ptr noundef nonnull align 8 dereferenceable(8) %7, ptr noundef nonnull %call6)
  br label %if.end

if.end:                                           ; preds = %if.then, %entry
  ret void
}